target datalayout = "e-m:e-p270:32:32-p271:32:32-p272:64:64-i64:64-i128:128-f80:128-n8:16:32:64-S128"
target triple = "x86_64-pc-linux-gnu"

; Function Attrs: nounwind uwtable
define i32 @ossl_dh_check_key(ptr noundef %0) #0 {
  %2 = alloca i32, align 4
  %3 = alloca ptr, align 8
  %4 = alloca i64, align 8
  %5 = alloca i64, align 8
  %6 = alloca ptr, align 8
  %7 = alloca ptr, align 8
  %8 = alloca i32, align 4
  store ptr %0, ptr %3, align 8, !tbaa !22
  call void @llvm.lifetime.start.p0(i64 8, ptr %4) #3
  call void @llvm.lifetime.start.p0(i64 8, ptr %5) #3
  call void @llvm.lifetime.start.p0(i64 8, ptr %6) #3
  call void @llvm.lifetime.start.p0(i64 8, ptr %7) #3
  %9 = load ptr, ptr %3, align 8, !tbaa !22
  %10 = icmp eq ptr %9, null
  br i1 %10, label %11, label %12

11:                                               ; preds = %1
  store i32 0, ptr %2, align 4
  store i32 1, ptr %8, align 4
  br label %52

12:                                               ; preds = %1
  %13 = load ptr, ptr %3, align 8, !tbaa !22
  %14 = call ptr @DH_get0_p(ptr noundef %13)
  store ptr %14, ptr %6, align 8, !tbaa !20
  %15 = load ptr, ptr %3, align 8, !tbaa !22
  %16 = call ptr @DH_get0_q(ptr noundef %15)
  store ptr %16, ptr %7, align 8, !tbaa !20
  %17 = load ptr, ptr %6, align 8, !tbaa !20
  %18 = icmp eq ptr %17, null
  br i1 %18, label %22, label %19

19:                                               ; preds = %12
  %20 = load ptr, ptr %7, align 8, !tbaa !20
  %21 = icmp eq ptr %20, null
  br i1 %21, label %22, label %23

22:                                               ; preds = %19, %12
  store i32 0, ptr %2, align 4
  store i32 1, ptr %8, align 4
  br label %52

23:                                               ; preds = %19
  %24 = load ptr, ptr %6, align 8, !tbaa !20
  %25 = call i32 @BN_num_bits(ptr noundef %24)
  %26 = sext i32 %25 to i64
  store i64 %26, ptr %4, align 8, !tbaa !12
  %27 = load i64, ptr %4, align 8, !tbaa !12
  %28 = icmp ult i64 %27, 2048
  br i1 %28, label %29, label %30

29:                                               ; preds = %23
  store i32 0, ptr %2, align 4
  store i32 1, ptr %8, align 4
  br label %52

30:                                               ; preds = %23
  %31 = load ptr, ptr %3, align 8, !tbaa !22
  %32 = call i32 @DH_get_nid(ptr noundef %31)
  %33 = icmp ne i32 %32, 0
  br i1 %33, label %34, label %35

34:                                               ; preds = %30
  store i32 1, ptr %2, align 4
  store i32 1, ptr %8, align 4
  br label %52

35:                                               ; preds = %30
  %36 = load ptr, ptr %7, align 8, !tbaa !20
  %37 = call i32 @BN_num_bits(ptr noundef %36)
  %38 = sext i32 %37 to i64
  store i64 %38, ptr %5, align 8, !tbaa !12
  %39 = load i64, ptr %4, align 8, !tbaa !12
  %40 = icmp eq i64 %39, 2048
  br i1 %40, label %41, label %49

41:                                               ; preds = %35
  %42 = load i64, ptr %5, align 8, !tbaa !12
  %43 = icmp eq i64 %42, 224
  br i1 %43, label %47, label %44

44:                                               ; preds = %41
  %45 = load i64, ptr %5, align 8, !tbaa !12
  %46 = icmp eq i64 %45, 256
  br label %47

47:                                               ; preds = %44, %41
  %48 = phi i1 [ true, %41 ], [ %46, %44 ]
  br label %49

49:                                               ; preds = %47, %35
  %50 = phi i1 [ false, %35 ], [ %48, %47 ]
  %51 = zext i1 %50 to i32
  store i32 %51, ptr %2, align 4
  store i32 1, ptr %8, align 4
  br label %52

52:                                               ; preds = %49, %34, %29, %22, %11
  call void @llvm.lifetime.end.p0(i64 8, ptr %7) #3
  call void @llvm.lifetime.end.p0(i64 8, ptr %6) #3
  call void @llvm.lifetime.end.p0(i64 8, ptr %5) #3
  call void @llvm.lifetime.end.p0(i64 8, ptr %4) #3
  %53 = load i32, ptr %2, align 4
  ret i32 %53
}