; Function Attrs: nounwind uwtable
define range(i32 0, 2) i32 @ossl_dh_check_key(ptr noundef %0) local_unnamed_addr #0 {
  %2 = icmp eq ptr %0, null
  br i1 %2, label %20, label %3

3:                                                ; preds = %1
  %4 = tail call ptr @DH_get0_p(ptr noundef nonnull %0) #3
  %5 = tail call ptr @DH_get0_q(ptr noundef nonnull %0) #3
  %6 = icmp eq ptr %4, null
  %7 = icmp eq ptr %5, null
  %or.cond = select i1 %6, i1 true, i1 %7
  br i1 %or.cond, label %20, label %8

8:                                                ; preds = %3
  %9 = tail call i32 @BN_num_bits(ptr noundef nonnull %4) #3
  %10 = icmp ult i32 %9, 2048
  br i1 %10, label %20, label %11

11:                                               ; preds = %8
  %12 = tail call i32 @DH_get_nid(ptr noundef nonnull %0) #3
  %.not = icmp eq i32 %12, 0
  br i1 %.not, label %13, label %20

13:                                               ; preds = %11
  %14 = tail call i32 @BN_num_bits(ptr noundef nonnull %5) #3
  %15 = icmp eq i32 %9, 2048
  %16 = icmp eq i32 %14, 224
  %17 = icmp eq i32 %14, 256
  %18 = or i1 %16, %17
  %narrow = select i1 %15, i1 %18, i1 false
  %19 = zext i1 %narrow to i32
  br label %20

20:                                               ; preds = %11, %8, %3, %1, %13
  %.0 = phi i32 [ %19, %13 ], [ 0, %1 ], [ 0, %3 ], [ 0, %8 ], [ 1, %11 ]
  ret i32 %.0
}